; Function Attrs: mustprogress uwtable
define void @_ZN14VrmlTranslator6Parser6SynErrEi(ptr noundef nonnull align 8 captures(none) dereferenceable(208) %0, i32 noundef %1) local_unnamed_addr #0 align 2 {
  %3 = getelementptr inbounds nuw i8, ptr %0, i64 16
  %4 = load i32, ptr %3, align 8
  %5 = getelementptr inbounds nuw i8, ptr %0, i64 20
  %6 = load i32, ptr %5, align 4
  %.not = icmp slt i32 %4, %6
  br i1 %.not, label %16, label %7

7:                                                ; preds = %2
  %8 = getelementptr inbounds nuw i8, ptr %0, i64 32
  %9 = load ptr, ptr %8, align 8
  %10 = getelementptr inbounds nuw i8, ptr %0, i64 48
  %11 = load ptr, ptr %10, align 8
  %12 = getelementptr inbounds nuw i8, ptr %11, i64 12
  %13 = load i32, ptr %12, align 4
  %14 = getelementptr inbounds nuw i8, ptr %11, i64 8
  %15 = load i32, ptr %14, align 8
  tail call void @_ZN14VrmlTranslator6Errors6SynErrEiii(ptr noundef nonnull align 8 dereferenceable(16) %9, i32 noundef %13, i32 noundef %15, i32 noundef %1)
  br label %16

16:                                               ; preds = %7, %2
  store i32 0, ptr %3, align 8
  ret void
}